; Function Attrs: mustprogress nounwind uwtable
define void @_ZN10MainWindowD2Ev(ptr noundef nonnull align 8 dereferenceable(272) %0) unnamed_addr #0 align 2 personality ptr @__gxx_personality_v0 {
  store ptr getelementptr inbounds ({ [57 x ptr], [10 x ptr] }, ptr @_ZTV10MainWindow, i64 0, i32 0, i64 2), ptr %0, align 8
  %2 = getelementptr inbounds i8, ptr %0, i64 16
  store ptr getelementptr inbounds ({ [57 x ptr], [10 x ptr] }, ptr @_ZTV10MainWindow, i64 0, i32 1, i64 2), ptr %2, align 8
  invoke void @_ZN10MainWindow21clearAddedPacketMenusEv(ptr nonnull align 8 poison)
          to label %3 unwind label %17

3:                                                ; preds = %1
  %4 = getelementptr inbounds i8, ptr %0, i64 200
  %5 = load ptr, ptr %4, align 8
  %.not.i.i.i = icmp eq ptr %5, null
  br i1 %.not.i.i.i, label %_ZN5QListIjED2Ev.exit, label %_ZN17QArrayDataPointerIjE5derefEv.exit.i.i

_ZN17QArrayDataPointerIjE5derefEv.exit.i.i:       ; preds = %3
  %6 = atomicrmw sub ptr %5, i32 1 seq_cst, align 4
  %.not.i.i = icmp eq i32 %6, 1
  br i1 %.not.i.i, label %7, label %_ZN5QListIjED2Ev.exit

7:                                                ; preds = %_ZN17QArrayDataPointerIjE5derefEv.exit.i.i
  %8 = load ptr, ptr %4, align 8
  tail call void @_ZN10QArrayData10deallocateEPS_xx(ptr noundef %8, i64 noundef 4, i64 noundef 8) #23
  br label %_ZN5QListIjED2Ev.exit

_ZN5QListIjED2Ev.exit:                            ; preds = %3, %_ZN17QArrayDataPointerIjE5derefEv.exit.i.i, %7
  %9 = getelementptr inbounds i8, ptr %0, i64 160
  tail call void @_ZN7QWidgetD1Ev(ptr noundef nonnull align 8 dereferenceable(40) %9) #23
  %10 = getelementptr inbounds i8, ptr %0, i64 120
  tail call void @_ZN9QSplitterD1Ev(ptr noundef nonnull align 8 dereferenceable(40) %10) #23
  %11 = getelementptr inbounds i8, ptr %0, i64 80
  tail call void @_ZN9QSplitterD1Ev(ptr noundef nonnull align 8 dereferenceable(40) %11) #23
  %12 = getelementptr inbounds i8, ptr %0, i64 40
  %13 = load ptr, ptr %12, align 8
  %.not.i.i.i1 = icmp eq ptr %13, null
  br i1 %.not.i.i.i1, label %_ZN5QListI21register_stat_group_eED2Ev.exit, label %_ZN17QArrayDataPointerI21register_stat_group_eE5derefEv.exit.i.i

_ZN17QArrayDataPointerI21register_stat_group_eE5derefEv.exit.i.i: ; preds = %_ZN5QListIjED2Ev.exit
  %14 = atomicrmw sub ptr %13, i32 1 seq_cst, align 4
  %.not.i.i2 = icmp eq i32 %14, 1
  br i1 %.not.i.i2, label %15, label %_ZN5QListI21register_stat_group_eED2Ev.exit

15:                                               ; preds = %_ZN17QArrayDataPointerI21register_stat_group_eE5derefEv.exit.i.i
  %16 = load ptr, ptr %12, align 8
  tail call void @_ZN10QArrayData10deallocateEPS_xx(ptr noundef %16, i64 noundef 4, i64 noundef 8) #23
  br label %_ZN5QListI21register_stat_group_eED2Ev.exit

_ZN5QListI21register_stat_group_eED2Ev.exit:      ; preds = %_ZN5QListIjED2Ev.exit, %_ZN17QArrayDataPointerI21register_stat_group_eE5derefEv.exit.i.i, %15
  tail call void @_ZN11QMainWindowD2Ev(ptr noundef nonnull align 8 dereferenceable(40) %0) #23
  ret void

17:                                               ; preds = %1
  %18 = landingpad { ptr, i32 }
          catch ptr null
  %19 = extractvalue { ptr, i32 } %18, 0
  tail call void @__clang_call_terminate(ptr %19) #24
  unreachable
}